target datalayout = "e-m:e-p270:32:32-p271:32:32-p272:64:64-i64:64-i128:128-f80:128-n8:16:32:64-S128"
target triple = "x86_64-pc-linux-gnu"

%struct._GRWLock = type { ptr, [2 x i32] }
%struct._GArray = type { ptr, i32 }
%struct.CPU = type { ptr, ptr }
%struct._GString = type { ptr, i64, i64 }

@cpus = internal global ptr null, align 8
@expand_array_lock = internal global %struct._GRWLock zeroinitializer, align 8
@.str.11 = private unnamed_addr constant [2 x i8] c"\0A\00", align 1

; Function Attrs: nounwind sspstrong uwtable
define internal ptr @get_cpu(i32 noundef %0) #0 {
  %2 = alloca i32, align 4
  %3 = alloca ptr, align 8
  store i32 %0, ptr %2, align 4
  call void @llvm.lifetime.start.p0(i64 8, ptr %3) #11
  store ptr null, ptr %3, align 8, !annotation !7
  call void @g_rw_lock_reader_lock(ptr noundef @expand_array_lock)
  %4 = load ptr, ptr @cpus, align 8
  %5 = getelementptr inbounds nuw %struct._GArray, ptr %4, i32 0, i32 0
  %6 = load ptr, ptr %5, align 8
  %7 = load i32, ptr %2, align 4
  %8 = sext i32 %7 to i64
  %9 = getelementptr inbounds %struct.CPU, ptr %6, i64 %8
  store ptr %9, ptr %3, align 8
  call void @g_rw_lock_reader_unlock(ptr noundef @expand_array_lock)
  %10 = load ptr, ptr %3, align 8
  call void @llvm.lifetime.end.p0(i64 8, ptr %3) #11
  ret ptr %10
}

; Function Attrs: nounwind sspstrong uwtable
define internal void @plugin_exit(i64 noundef %0, ptr noundef %1) #0 {
  %3 = alloca i64, align 8
  %4 = alloca ptr, align 8
  %5 = alloca i32, align 4
  %6 = alloca ptr, align 8
  store i64 %0, ptr %3, align 8
  store ptr %1, ptr %4, align 8
  call void @llvm.lifetime.start.p0(i64 4, ptr %5) #11
  store i32 0, ptr %5, align 4, !annotation !7
  call void @g_rw_lock_reader_lock(ptr noundef @expand_array_lock)
  store i32 0, ptr %5, align 4
  br label %7

7:                                                ; preds = %34, %2
  %8 = load i32, ptr %5, align 4
  %9 = load ptr, ptr @cpus, align 8
  %10 = getelementptr inbounds nuw %struct._GArray, ptr %9, i32 0, i32 1
  %11 = load i32, ptr %10, align 8
  %12 = icmp ult i32 %8, %11
  br i1 %12, label %13, label %37

13:                                               ; preds = %7
  call void @llvm.lifetime.start.p0(i64 8, ptr %6) #11
  %14 = load i32, ptr %5, align 4
  %15 = call ptr @get_cpu(i32 noundef %14)
  store ptr %15, ptr %6, align 8
  %16 = load ptr, ptr %6, align 8
  %17 = getelementptr inbounds nuw %struct.CPU, ptr %16, i32 0, i32 0
  %18 = load ptr, ptr %17, align 8
  %19 = icmp ne ptr %18, null
  br i1 %19, label %20, label %33

20:                                               ; preds = %13
  %21 = load ptr, ptr %6, align 8
  %22 = getelementptr inbounds nuw %struct.CPU, ptr %21, i32 0, i32 0
  %23 = load ptr, ptr %22, align 8
  %24 = getelementptr inbounds nuw %struct._GString, ptr %23, i32 0, i32 0
  %25 = load ptr, ptr %24, align 8
  %26 = icmp ne ptr %25, null
  br i1 %26, label %27, label %33

27:                                               ; preds = %20
  %28 = load ptr, ptr %6, align 8
  %29 = getelementptr inbounds nuw %struct.CPU, ptr %28, i32 0, i32 0
  %30 = load ptr, ptr %29, align 8
  %31 = getelementptr inbounds nuw %struct._GString, ptr %30, i32 0, i32 0
  %32 = load ptr, ptr %31, align 8
  call void @qemu_plugin_outs(ptr noundef %32)
  call void @qemu_plugin_outs(ptr noundef @.str.11)
  br label %33

33:                                               ; preds = %27, %20, %13
  call void @llvm.lifetime.end.p0(i64 8, ptr %6) #11
  br label %34

34:                                               ; preds = %33
  %35 = load i32, ptr %5, align 4
  %36 = add i32 %35, 1
  store i32 %36, ptr %5, align 4
  br label %7, !llvm.loop !12

37:                                               ; preds = %7
  call void @g_rw_lock_reader_unlock(ptr noundef @expand_array_lock)
  call void @llvm.lifetime.end.p0(i64 4, ptr %5) #11
  ret void
}