; Function Attrs: nounwind sspstrong uwtable
define internal void @plugin_exit(i64 %0, ptr readnone captures(none) %1) #0 {
  tail call void @g_rw_lock_reader_lock(ptr noundef nonnull @expand_array_lock) #7
  %3 = load ptr, ptr @cpus, align 8
  %4 = getelementptr inbounds nuw i8, ptr %3, i64 8
  %5 = load i32, ptr %4, align 8
  %.not9 = icmp eq i32 %5, 0
  br i1 %.not9, label %._crit_edge, label %.lr.ph

.lr.ph:                                           ; preds = %2, %14
  %.08 = phi i32 [ %15, %14 ], [ 0, %2 ]
  tail call void @g_rw_lock_reader_lock(ptr noundef nonnull @expand_array_lock) #7
  %6 = load ptr, ptr @cpus, align 8
  %7 = load ptr, ptr %6, align 8
  %8 = sext i32 %.08 to i64
  %9 = getelementptr inbounds %struct.CPU, ptr %7, i64 %8
  tail call void @g_rw_lock_reader_unlock(ptr noundef nonnull @expand_array_lock) #7
  %10 = load ptr, ptr %9, align 8
  %.not = icmp eq ptr %10, null
  br i1 %.not, label %14, label %11

11:                                               ; preds = %.lr.ph
  %12 = load ptr, ptr %10, align 8
  %.not7 = icmp eq ptr %12, null
  br i1 %.not7, label %14, label %13

13:                                               ; preds = %11
  tail call void @qemu_plugin_outs(ptr noundef nonnull %12) #7
  tail call void @qemu_plugin_outs(ptr noundef nonnull @.str.11) #7
  br label %14

14:                                               ; preds = %13, %11, %.lr.ph
  %15 = add nuw i32 %.08, 1
  %16 = load ptr, ptr @cpus, align 8
  %17 = getelementptr inbounds nuw i8, ptr %16, i64 8
  %18 = load i32, ptr %17, align 8
  %19 = icmp ult i32 %15, %18
  br i1 %19, label %.lr.ph, label %._crit_edge, !llvm.loop !15

._crit_edge:                                      ; preds = %14, %2
  tail call void @g_rw_lock_reader_unlock(ptr noundef nonnull @expand_array_lock) #7
  ret void
}